target datalayout = "e-m:e-p270:32:32-p271:32:32-p272:64:64-i64:64-i128:128-f80:128-n8:16:32:64-S128"
target triple = "x86_64-pc-linux-gnu"

%struct.mbedtls_ssl_context = type { ptr, i32, i32, i32, i32, i32, ptr, ptr, ptr, ptr, ptr, ptr, ptr, ptr, ptr, ptr, ptr, ptr, ptr, ptr, ptr, ptr, ptr, ptr, ptr, ptr, ptr, ptr, ptr, ptr, ptr, ptr, ptr, i32, i64, i64, i16, i64, i64, i64, i64, i32, i32, i8, i8, i32, i8, ptr, ptr, ptr, ptr, ptr, ptr, ptr, i32, i64, i64, [8 x i8], i16, ptr, ptr, ptr, i64, i32, i64, [12 x i8], [12 x i8], [32 x i8], i8, i8, ptr, ptr, %union.mbedtls_ssl_user_data_t }
%union.mbedtls_ssl_user_data_t = type { i64 }
%struct.mbedtls_ssl_config = type { i32, i32, i8, i8, i8, i8, i8, i8, i8, i8, i8, i8, i16, i8, i8, i8, ptr, i32, ptr, ptr, ptr, ptr, ptr, ptr, ptr, ptr, ptr, ptr, ptr, ptr, ptr, ptr, ptr, ptr, ptr, ptr, ptr, i64, ptr, ptr, ptr, ptr, ptr, ptr, ptr, ptr, %struct.mbedtls_mpi, %struct.mbedtls_mpi, ptr, i64, ptr, i64, ptr, i32, i32, i32, i32, [8 x i8], i32, i32, %union.mbedtls_ssl_user_data_t, ptr, ptr }
%struct.mbedtls_mpi = type { ptr, i16, i16 }
%struct.mbedtls_ssl_handshake_params = type { i8, i8, i8, i8, i8, i32, i8, i8, i8, i8, ptr, ptr, ptr, ptr, ptr, i8, i8, i8, i8, i16, i16, [20 x i16], ptr, ptr, %struct.mbedtls_dhm_context, %struct.mbedtls_ecdh_context, i16, i64, i32, i8, [1024 x i8], i64, ptr, ptr, i64, i16, ptr, ptr, ptr, ptr, %struct.anon, ptr, i16, i8, i32, i32, i32, ptr, ptr, ptr, i32, ptr, [8 x i8], i8, [32 x i8], i8, i16, %struct.mbedtls_md_context_t, %struct.mbedtls_md_context_t, i16, i8, %union.anon.1, [64 x i8], [1076 x i8], i64, i32, i32, i8, ptr, ptr, %union.anon.4, %struct.mbedtls_ssl_tls13_handshake_secrets, ptr, i64, ptr }
%struct.mbedtls_dhm_context = type { %struct.mbedtls_mpi, %struct.mbedtls_mpi, %struct.mbedtls_mpi, %struct.mbedtls_mpi, %struct.mbedtls_mpi, %struct.mbedtls_mpi, %struct.mbedtls_mpi, %struct.mbedtls_mpi, %struct.mbedtls_mpi, %struct.mbedtls_mpi }
%struct.mbedtls_ecdh_context = type { i8, i32, i32, %union.anon }
%union.anon = type { %struct.mbedtls_ecdh_context_mbed }
%struct.mbedtls_ecdh_context_mbed = type { %struct.mbedtls_ecp_group, %struct.mbedtls_mpi, %struct.mbedtls_ecp_point, %struct.mbedtls_ecp_point, %struct.mbedtls_mpi }
%struct.mbedtls_ecp_group = type { i32, %struct.mbedtls_mpi, %struct.mbedtls_mpi, %struct.mbedtls_mpi, %struct.mbedtls_ecp_point, %struct.mbedtls_mpi, i64, i64, i32, ptr, ptr, ptr, ptr, ptr, i64 }
%struct.mbedtls_ecp_point = type { %struct.mbedtls_mpi, %struct.mbedtls_mpi, %struct.mbedtls_mpi }
%struct.anon = type { i64, i8, [4 x %struct.mbedtls_ssl_hs_buffer], %struct.anon.0 }
%struct.mbedtls_ssl_hs_buffer = type { i8, ptr, i64 }
%struct.anon.0 = type { ptr, i64, i32 }
%struct.mbedtls_md_context_t = type { ptr, ptr, ptr }
%union.anon.1 = type { %struct.anon.2 }
%struct.anon.2 = type { i8, [64 x i8], i64 }
%union.anon.4 = type { [64 x i8] }
%struct.mbedtls_ssl_tls13_handshake_secrets = type { [64 x i8], [64 x i8] }

@.str = private unnamed_addr constant [130 x i8] c"generated/home/dtcxzyw/WorkSpace/Projects/compilers/llvm-opt-benchmark/bench/lief/bench_build/mbed_src/library/ssl_tls12_server.c\00", align 1
@.str.8 = private unnamed_addr constant [25 x i8] c"bad client hello message\00", align 1
@.str.60 = private unnamed_addr constant [44 x i8] c"Client sent CID extension, but CID disabled\00", align 1
@.str.61 = private unnamed_addr constant [32 x i8] c"Use of CID extension negotiated\00", align 1
@.str.62 = private unnamed_addr constant [11 x i8] c"Client CID\00", align 1

; Function Attrs: nounwind uwtable
define internal i32 @ssl_parse_cid_ext(ptr noundef %0, ptr noundef %1, i64 noundef %2) #0 {
  %4 = alloca i32, align 4
  %5 = alloca ptr, align 8
  %6 = alloca ptr, align 8
  %7 = alloca i64, align 8
  %8 = alloca i64, align 8
  %9 = alloca i32, align 4
  store ptr %0, ptr %5, align 8, !tbaa !3
  store ptr %1, ptr %6, align 8, !tbaa !8
  store i64 %2, ptr %7, align 8, !tbaa !10
  call void @llvm.lifetime.start.p0(i64 8, ptr %8) #10
  %10 = load ptr, ptr %5, align 8, !tbaa !3
  %11 = getelementptr inbounds nuw %struct.mbedtls_ssl_context, ptr %10, i32 0, i32 0
  %12 = load ptr, ptr %11, align 8, !tbaa !12
  %13 = getelementptr inbounds nuw %struct.mbedtls_ssl_config, ptr %12, i32 0, i32 3
  %14 = load i8, ptr %13, align 1, !tbaa !58
  %15 = zext i8 %14 to i32
  %16 = icmp ne i32 %15, 1
  br i1 %16, label %17, label %21

17:                                               ; preds = %3
  %18 = load ptr, ptr %5, align 8, !tbaa !3
  call void (ptr, i32, ptr, i32, ptr, ...) @mbedtls_debug_print_msg(ptr noundef %18, i32 noundef 1, ptr noundef @.str, i32 noundef 367, ptr noundef @.str.8)
  %19 = load ptr, ptr %5, align 8, !tbaa !3
  %20 = call i32 @mbedtls_ssl_send_alert_message(ptr noundef %19, i8 noundef zeroext 2, i8 noundef zeroext 47)
  store i32 -26112, ptr %4, align 4
  store i32 1, ptr %9, align 4
  br label %79

21:                                               ; preds = %3
  %22 = load i64, ptr %7, align 8, !tbaa !10
  %23 = icmp ult i64 %22, 1
  br i1 %23, label %24, label %28

24:                                               ; preds = %21
  %25 = load ptr, ptr %5, align 8, !tbaa !3
  call void (ptr, i32, ptr, i32, ptr, ...) @mbedtls_debug_print_msg(ptr noundef %25, i32 noundef 1, ptr noundef @.str, i32 noundef 380, ptr noundef @.str.8)
  %26 = load ptr, ptr %5, align 8, !tbaa !3
  %27 = call i32 @mbedtls_ssl_send_alert_message(ptr noundef %26, i8 noundef zeroext 2, i8 noundef zeroext 50)
  store i32 -29440, ptr %4, align 4
  store i32 1, ptr %9, align 4
  br label %79

28:                                               ; preds = %21
  %29 = load ptr, ptr %6, align 8, !tbaa !8
  %30 = getelementptr inbounds nuw i8, ptr %29, i32 1
  store ptr %30, ptr %6, align 8, !tbaa !8
  %31 = load i8, ptr %29, align 1, !tbaa !56
  %32 = zext i8 %31 to i64
  store i64 %32, ptr %8, align 8, !tbaa !10
  %33 = load i64, ptr %7, align 8, !tbaa !10
  %34 = add i64 %33, -1
  store i64 %34, ptr %7, align 8, !tbaa !10
  %35 = load i64, ptr %7, align 8, !tbaa !10
  %36 = load i64, ptr %8, align 8, !tbaa !10
  %37 = icmp ne i64 %35, %36
  br i1 %37, label %38, label %42

38:                                               ; preds = %28
  %39 = load ptr, ptr %5, align 8, !tbaa !3
  call void (ptr, i32, ptr, i32, ptr, ...) @mbedtls_debug_print_msg(ptr noundef %39, i32 noundef 1, ptr noundef @.str, i32 noundef 390, ptr noundef @.str.8)
  %40 = load ptr, ptr %5, align 8, !tbaa !3
  %41 = call i32 @mbedtls_ssl_send_alert_message(ptr noundef %40, i8 noundef zeroext 2, i8 noundef zeroext 50)
  store i32 -29440, ptr %4, align 4
  store i32 1, ptr %9, align 4
  br label %79

42:                                               ; preds = %28
  %43 = load ptr, ptr %5, align 8, !tbaa !3
  %44 = getelementptr inbounds nuw %struct.mbedtls_ssl_context, ptr %43, i32 0, i32 69
  %45 = load i8, ptr %44, align 1, !tbaa !144
  %46 = zext i8 %45 to i32
  %47 = icmp eq i32 %46, 0
  br i1 %47, label %48, label %50

48:                                               ; preds = %42
  %49 = load ptr, ptr %5, align 8, !tbaa !3
  call void (ptr, i32, ptr, i32, ptr, ...) @mbedtls_debug_print_msg(ptr noundef %49, i32 noundef 3, ptr noundef @.str, i32 noundef 400, ptr noundef @.str.60)
  store i32 0, ptr %4, align 4
  store i32 1, ptr %9, align 4
  br label %79

50:                                               ; preds = %42
  %51 = load i64, ptr %8, align 8, !tbaa !10
  %52 = icmp ugt i64 %51, 32
  br i1 %52, label %53, label %57

53:                                               ; preds = %50
  %54 = load ptr, ptr %5, align 8, !tbaa !3
  call void (ptr, i32, ptr, i32, ptr, ...) @mbedtls_debug_print_msg(ptr noundef %54, i32 noundef 1, ptr noundef @.str, i32 noundef 405, ptr noundef @.str.8)
  %55 = load ptr, ptr %5, align 8, !tbaa !3
  %56 = call i32 @mbedtls_ssl_send_alert_message(ptr noundef %55, i8 noundef zeroext 2, i8 noundef zeroext 47)
  store i32 -26112, ptr %4, align 4
  store i32 1, ptr %9, align 4
  br label %79

57:                                               ; preds = %50
  %58 = load ptr, ptr %5, align 8, !tbaa !3
  %59 = getelementptr inbounds nuw %struct.mbedtls_ssl_context, ptr %58, i32 0, i32 16
  %60 = load ptr, ptr %59, align 8, !tbaa !41
  %61 = getelementptr inbounds nuw %struct.mbedtls_ssl_handshake_params, ptr %60, i32 0, i32 53
  store i8 1, ptr %61, align 8, !tbaa !145
  %62 = load i64, ptr %8, align 8, !tbaa !10
  %63 = trunc i64 %62 to i8
  %64 = load ptr, ptr %5, align 8, !tbaa !3
  %65 = getelementptr inbounds nuw %struct.mbedtls_ssl_context, ptr %64, i32 0, i32 16
  %66 = load ptr, ptr %65, align 8, !tbaa !41
  %67 = getelementptr inbounds nuw %struct.mbedtls_ssl_handshake_params, ptr %66, i32 0, i32 55
  store i8 %63, ptr %67, align 1, !tbaa !146
  %68 = load ptr, ptr %5, align 8, !tbaa !3
  %69 = getelementptr inbounds nuw %struct.mbedtls_ssl_context, ptr %68, i32 0, i32 16
  %70 = load ptr, ptr %69, align 8, !tbaa !41
  %71 = getelementptr inbounds nuw %struct.mbedtls_ssl_handshake_params, ptr %70, i32 0, i32 54
  %72 = getelementptr inbounds [32 x i8], ptr %71, i64 0, i64 0
  %73 = load ptr, ptr %6, align 8, !tbaa !8
  %74 = load i64, ptr %8, align 8, !tbaa !10
  call void @llvm.memcpy.p0.p0.i64(ptr align 1 %72, ptr align 1 %73, i64 %74, i1 false)
  %75 = load ptr, ptr %5, align 8, !tbaa !3
  call void (ptr, i32, ptr, i32, ptr, ...) @mbedtls_debug_print_msg(ptr noundef %75, i32 noundef 3, ptr noundef @.str, i32 noundef 415, ptr noundef @.str.61)
  %76 = load ptr, ptr %5, align 8, !tbaa !3
  %77 = load ptr, ptr %6, align 8, !tbaa !8
  %78 = load i64, ptr %8, align 8, !tbaa !10
  call void @mbedtls_debug_print_buf(ptr noundef %76, i32 noundef 3, ptr noundef @.str, i32 noundef 416, ptr noundef @.str.62, ptr noundef %77, i64 noundef %78)
  store i32 0, ptr %4, align 4
  store i32 1, ptr %9, align 4
  br label %79

79:                                               ; preds = %57, %53, %48, %38, %24, %17
  call void @llvm.lifetime.end.p0(i64 8, ptr %8) #10
  %80 = load i32, ptr %4, align 4
  ret i32 %80
}