; Function Attrs: nounwind uwtable
define internal fastcc range(i32 -29440, 1) i32 @ssl_parse_cid_ext(ptr noundef %0, ptr noundef %1, i64 noundef range(i64 0, 65536) %2) unnamed_addr #5 {
  %4 = load ptr, ptr %0, align 8, !tbaa !3
  %5 = getelementptr inbounds nuw i8, ptr %4, i64 9
  %6 = load i8, ptr %5, align 1, !tbaa !37
  %.not = icmp eq i8 %6, 1
  br i1 %.not, label %9, label %7

7:                                                ; preds = %3
  tail call void (ptr, i32, ptr, i32, ptr, ...) @mbedtls_debug_print_msg(ptr noundef nonnull %0, i32 noundef 1, ptr noundef nonnull @.str, i32 noundef 367, ptr noundef nonnull @.str.8) #12
  %8 = tail call i32 @mbedtls_ssl_send_alert_message(ptr noundef nonnull %0, i8 noundef zeroext 2, i8 noundef zeroext 47) #12
  br label %35

9:                                                ; preds = %3
  %10 = icmp eq i64 %2, 0
  br i1 %10, label %11, label %13

11:                                               ; preds = %9
  tail call void (ptr, i32, ptr, i32, ptr, ...) @mbedtls_debug_print_msg(ptr noundef nonnull %0, i32 noundef 1, ptr noundef nonnull @.str, i32 noundef 380, ptr noundef nonnull @.str.8) #12
  %12 = tail call i32 @mbedtls_ssl_send_alert_message(ptr noundef nonnull %0, i8 noundef zeroext 2, i8 noundef zeroext 50) #12
  br label %35

13:                                               ; preds = %9
  %14 = getelementptr inbounds nuw i8, ptr %1, i64 1
  %15 = load i8, ptr %1, align 1, !tbaa !38
  %16 = zext i8 %15 to i64
  %17 = add nsw i64 %2, -1
  %.not29 = icmp eq i64 %17, %16
  br i1 %.not29, label %20, label %18

18:                                               ; preds = %13
  tail call void (ptr, i32, ptr, i32, ptr, ...) @mbedtls_debug_print_msg(ptr noundef nonnull %0, i32 noundef 1, ptr noundef nonnull @.str, i32 noundef 390, ptr noundef nonnull @.str.8) #12
  %19 = tail call i32 @mbedtls_ssl_send_alert_message(ptr noundef nonnull %0, i8 noundef zeroext 2, i8 noundef zeroext 50) #12
  br label %35

20:                                               ; preds = %13
  %21 = getelementptr inbounds nuw i8, ptr %0, i64 537
  %22 = load i8, ptr %21, align 1, !tbaa !160
  %23 = icmp eq i8 %22, 0
  br i1 %23, label %24, label %25

24:                                               ; preds = %20
  tail call void (ptr, i32, ptr, i32, ptr, ...) @mbedtls_debug_print_msg(ptr noundef nonnull %0, i32 noundef 3, ptr noundef nonnull @.str, i32 noundef 400, ptr noundef nonnull @.str.60) #12
  br label %35

25:                                               ; preds = %20
  %26 = icmp ugt i8 %15, 32
  br i1 %26, label %27, label %29

27:                                               ; preds = %25
  tail call void (ptr, i32, ptr, i32, ptr, ...) @mbedtls_debug_print_msg(ptr noundef nonnull %0, i32 noundef 1, ptr noundef nonnull @.str, i32 noundef 405, ptr noundef nonnull @.str.8) #12
  %28 = tail call i32 @mbedtls_ssl_send_alert_message(ptr noundef nonnull %0, i8 noundef zeroext 2, i8 noundef zeroext 47) #12
  br label %35

29:                                               ; preds = %25
  %30 = getelementptr inbounds nuw i8, ptr %0, i64 112
  %31 = load ptr, ptr %30, align 8, !tbaa !45
  %32 = getelementptr inbounds nuw i8, ptr %31, i64 1944
  store i8 1, ptr %32, align 8, !tbaa !106
  %33 = getelementptr inbounds nuw i8, ptr %31, i64 1977
  store i8 %15, ptr %33, align 1, !tbaa !161
  %34 = getelementptr inbounds nuw i8, ptr %31, i64 1945
  tail call void @llvm.memcpy.p0.p0.i64(ptr nonnull align 1 %34, ptr nonnull align 1 %14, i64 %16, i1 false)
  tail call void (ptr, i32, ptr, i32, ptr, ...) @mbedtls_debug_print_msg(ptr noundef nonnull %0, i32 noundef 3, ptr noundef nonnull @.str, i32 noundef 415, ptr noundef nonnull @.str.61) #12
  tail call void @mbedtls_debug_print_buf(ptr noundef nonnull %0, i32 noundef 3, ptr noundef nonnull @.str, i32 noundef 416, ptr noundef nonnull @.str.62, ptr noundef nonnull %14, i64 noundef %16) #12
  br label %35

35:                                               ; preds = %29, %27, %24, %18, %11, %7
  %.0 = phi i32 [ -26112, %7 ], [ -29440, %11 ], [ -29440, %18 ], [ 0, %24 ], [ -26112, %27 ], [ 0, %29 ]
  ret i32 %.0
}